; Function Attrs: null_pointer_is_valid sspstrong uwtable
define internal i32 @dissect_ber_OBJECT_IDENTIFIER(i1 noundef zeroext %0, ptr noundef %1, i32 noundef %2, ptr noundef captures(address_is_null) %3, ptr noundef %4, i32 noundef %5) #0 {
  %7 = alloca ptr, align 8
  %.not = icmp eq ptr %3, null
  br i1 %.not, label %8, label %9

8:                                                ; preds = %6
  tail call void (ptr, ...) @proto_report_dissector_bug(ptr noundef nonnull @.str.367, ptr noundef nonnull @.str.11, i32 noundef 4122, ptr noundef nonnull @.str.368) #15
  unreachable

9:                                                ; preds = %6
  call void @llvm.lifetime.start.p0(i64 8, ptr nonnull %7) #14
  store ptr null, ptr %7, align 8
  %10 = call fastcc i32 @dissect_ber_any_oid(i1 noundef zeroext %0, ptr noundef nonnull %3, ptr noundef %4, ptr noundef %1, i32 noundef %2, i32 noundef %5, ptr noundef nonnull %7, i1 noundef zeroext true)
  %11 = load ptr, ptr %7, align 8
  %.not16.i.i = icmp eq ptr %11, null
  br i1 %.not16.i.i, label %dissect_ber_object_identifier_str.exit, label %12

12:                                               ; preds = %9
  %13 = call i32 @tvb_reported_length(ptr noundef nonnull %11)
  %.not17.i.i = icmp eq i32 %13, 0
  br i1 %.not17.i.i, label %dissect_ber_object_identifier_str.exit, label %14

14:                                               ; preds = %12
  %15 = getelementptr inbounds nuw i8, ptr %3, i64 16
  %16 = load ptr, ptr %15, align 8
  %17 = getelementptr inbounds nuw i8, ptr %16, i64 408
  %18 = load ptr, ptr %17, align 8
  %19 = load ptr, ptr %7, align 8
  %20 = call ptr @tvb_get_ptr(ptr noundef %19, i32 noundef 0, i32 noundef %13)
  %21 = call ptr @oid_encoded2string(ptr noundef %18, ptr noundef %20, i32 noundef %13)
  br label %dissect_ber_object_identifier_str.exit

dissect_ber_object_identifier_str.exit:           ; preds = %9, %12, %14
  %.sink.i.i = phi ptr [ %21, %14 ], [ @.str.43, %12 ], [ @.str.43, %9 ]
  %22 = getelementptr inbounds nuw i8, ptr %3, i64 72
  store ptr %.sink.i.i, ptr %22, align 8
  call void @llvm.lifetime.end.p0(i64 8, ptr nonnull %7) #14
  %23 = getelementptr inbounds nuw i8, ptr %3, i64 61
  store i8 1, ptr %23, align 1
  ret i32 %10
}